target datalayout = "e-m:e-p270:32:32-p271:32:32-p272:64:64-i64:64-i128:128-f80:128-n8:16:32:64-S128"
target triple = "x86_64-pc-linux-gnu"

%class.colvarvalue = type { i32, double, %"class.colvarmodule::rvector", %"class.colvarmodule::quaternion", %"class.colvarmodule::vector1d", %"class.std::vector.0", %"class.std::vector.5", %"class.std::vector.5" }
%"class.colvarmodule::rvector" = type { double, double, double }
%"class.colvarmodule::quaternion" = type { double, double, double, double }
%"class.colvarmodule::vector1d" = type { %"class.std::vector" }
%"class.std::vector" = type { %"struct.std::_Vector_base" }
%"struct.std::_Vector_base" = type { %"struct.std::_Vector_base<double, std::allocator<double>>::_Vector_impl" }
%"struct.std::_Vector_base<double, std::allocator<double>>::_Vector_impl" = type { %"struct.std::_Vector_base<double, std::allocator<double>>::_Vector_impl_data" }
%"struct.std::_Vector_base<double, std::allocator<double>>::_Vector_impl_data" = type { ptr, ptr, ptr }
%"class.std::vector.0" = type { %"struct.std::_Vector_base.1" }
%"struct.std::_Vector_base.1" = type { %"struct.std::_Vector_base<colvarvalue::Type, std::allocator<colvarvalue::Type>>::_Vector_impl" }
%"struct.std::_Vector_base<colvarvalue::Type, std::allocator<colvarvalue::Type>>::_Vector_impl" = type { %"struct.std::_Vector_base<colvarvalue::Type, std::allocator<colvarvalue::Type>>::_Vector_impl_data" }
%"struct.std::_Vector_base<colvarvalue::Type, std::allocator<colvarvalue::Type>>::_Vector_impl_data" = type { ptr, ptr, ptr }
%"class.std::vector.5" = type { %"struct.std::_Vector_base.6" }
%"struct.std::_Vector_base.6" = type { %"struct.std::_Vector_base<int, std::allocator<int>>::_Vector_impl" }
%"struct.std::_Vector_base<int, std::allocator<int>>::_Vector_impl" = type { %"struct.std::_Vector_base<int, std::allocator<int>>::_Vector_impl_data" }
%"struct.std::_Vector_base<int, std::allocator<int>>::_Vector_impl_data" = type { ptr, ptr, ptr }

; Function Attrs: inlinehint mustprogress nounwind uwtable
define linkonce_odr noundef double @_ZNK12colvarmodule10quaternion5innerERKS0_(ptr noundef nonnull align 8 dereferenceable(32) %0, ptr noundef nonnull align 8 dereferenceable(32) %1) #3 comdat align 2 {
  %3 = alloca ptr, align 8
  %4 = alloca ptr, align 8
  %5 = alloca double, align 8
  store ptr %0, ptr %3, align 8, !tbaa !33
  store ptr %1, ptr %4, align 8, !tbaa !33
  %6 = load ptr, ptr %3, align 8
  call void @llvm.lifetime.start.p0(i64 8, ptr %5) #15
  %7 = getelementptr inbounds nuw %"class.colvarmodule::quaternion", ptr %6, i32 0, i32 0
  %8 = load double, ptr %7, align 8, !tbaa !50
  %9 = load ptr, ptr %4, align 8, !tbaa !33
  %10 = getelementptr inbounds nuw %"class.colvarmodule::quaternion", ptr %9, i32 0, i32 0
  %11 = load double, ptr %10, align 8, !tbaa !50
  %12 = getelementptr inbounds nuw %"class.colvarmodule::quaternion", ptr %6, i32 0, i32 1
  %13 = load double, ptr %12, align 8, !tbaa !49
  %14 = load ptr, ptr %4, align 8, !tbaa !33
  %15 = getelementptr inbounds nuw %"class.colvarmodule::quaternion", ptr %14, i32 0, i32 1
  %16 = load double, ptr %15, align 8, !tbaa !49
  %17 = fmul double %13, %16
  %18 = call double @llvm.fmuladd.f64(double %8, double %11, double %17)
  %19 = getelementptr inbounds nuw %"class.colvarmodule::quaternion", ptr %6, i32 0, i32 2
  %20 = load double, ptr %19, align 8, !tbaa !48
  %21 = load ptr, ptr %4, align 8, !tbaa !33
  %22 = getelementptr inbounds nuw %"class.colvarmodule::quaternion", ptr %21, i32 0, i32 2
  %23 = load double, ptr %22, align 8, !tbaa !48
  %24 = call double @llvm.fmuladd.f64(double %20, double %23, double %18)
  %25 = getelementptr inbounds nuw %"class.colvarmodule::quaternion", ptr %6, i32 0, i32 3
  %26 = load double, ptr %25, align 8, !tbaa !47
  %27 = load ptr, ptr %4, align 8, !tbaa !33
  %28 = getelementptr inbounds nuw %"class.colvarmodule::quaternion", ptr %27, i32 0, i32 3
  %29 = load double, ptr %28, align 8, !tbaa !47
  %30 = call double @llvm.fmuladd.f64(double %26, double %29, double %24)
  store double %30, ptr %5, align 8, !tbaa !43
  %31 = load double, ptr %5, align 8, !tbaa !43
  call void @llvm.lifetime.end.p0(i64 8, ptr %5) #15
  ret double %31
}

; Function Attrs: inlinehint mustprogress nounwind uwtable
define linkonce_odr noundef double @_ZmlRKN12colvarmodule7rvectorES2_(ptr noundef nonnull align 8 dereferenceable(24) %0, ptr noundef nonnull align 8 dereferenceable(24) %1) #3 comdat {
  %3 = alloca ptr, align 8
  %4 = alloca ptr, align 8
  store ptr %0, ptr %3, align 8, !tbaa !31
  store ptr %1, ptr %4, align 8, !tbaa !31
  %5 = load ptr, ptr %3, align 8, !tbaa !31
  %6 = getelementptr inbounds nuw %"class.colvarmodule::rvector", ptr %5, i32 0, i32 0
  %7 = load double, ptr %6, align 8, !tbaa !46
  %8 = load ptr, ptr %4, align 8, !tbaa !31
  %9 = getelementptr inbounds nuw %"class.colvarmodule::rvector", ptr %8, i32 0, i32 0
  %10 = load double, ptr %9, align 8, !tbaa !46
  %11 = load ptr, ptr %3, align 8, !tbaa !31
  %12 = getelementptr inbounds nuw %"class.colvarmodule::rvector", ptr %11, i32 0, i32 1
  %13 = load double, ptr %12, align 8, !tbaa !45
  %14 = load ptr, ptr %4, align 8, !tbaa !31
  %15 = getelementptr inbounds nuw %"class.colvarmodule::rvector", ptr %14, i32 0, i32 1
  %16 = load double, ptr %15, align 8, !tbaa !45
  %17 = fmul double %13, %16
  %18 = call double @llvm.fmuladd.f64(double %7, double %10, double %17)
  %19 = load ptr, ptr %3, align 8, !tbaa !31
  %20 = getelementptr inbounds nuw %"class.colvarmodule::rvector", ptr %19, i32 0, i32 2
  %21 = load double, ptr %20, align 8, !tbaa !44
  %22 = load ptr, ptr %4, align 8, !tbaa !31
  %23 = getelementptr inbounds nuw %"class.colvarmodule::rvector", ptr %22, i32 0, i32 2
  %24 = load double, ptr %23, align 8, !tbaa !44
  %25 = call double @llvm.fmuladd.f64(double %21, double %24, double %18)
  ret double %25
}

; Function Attrs: mustprogress uwtable
define noundef double @_ZmlRK11colvarvalueS1_(ptr noundef nonnull align 8 dereferenceable(168) %0, ptr noundef nonnull align 8 dereferenceable(168) %1) #0 {
  %3 = alloca double, align 8
  %4 = alloca ptr, align 8
  %5 = alloca ptr, align 8
  store ptr %0, ptr %4, align 8, !tbaa !4
  store ptr %1, ptr %5, align 8, !tbaa !4
  %6 = load ptr, ptr %4, align 8, !tbaa !4
  %7 = load ptr, ptr %5, align 8, !tbaa !4
  %8 = call noundef i32 @_ZN11colvarvalue11check_typesERKS_S1_(ptr noundef nonnull align 8 dereferenceable(168) %6, ptr noundef nonnull align 8 dereferenceable(168) %7)
  %9 = load ptr, ptr %4, align 8, !tbaa !4
  %10 = getelementptr inbounds nuw %class.colvarvalue, ptr %9, i32 0, i32 0
  %11 = load i32, ptr %10, align 8, !tbaa !9
  switch i32 %11, label %39 [
    i32 1, label %12
    i32 2, label %20
    i32 3, label %20
    i32 4, label %20
    i32 5, label %26
    i32 6, label %26
    i32 7, label %32
    i32 0, label %38
  ]

12:                                               ; preds = %2
  %13 = load ptr, ptr %4, align 8, !tbaa !4
  %14 = getelementptr inbounds nuw %class.colvarvalue, ptr %13, i32 0, i32 1
  %15 = load double, ptr %14, align 8, !tbaa !30
  %16 = load ptr, ptr %5, align 8, !tbaa !4
  %17 = getelementptr inbounds nuw %class.colvarvalue, ptr %16, i32 0, i32 1
  %18 = load double, ptr %17, align 8, !tbaa !30
  %19 = fmul double %15, %18
  store double %19, ptr %3, align 8
  br label %41

20:                                               ; preds = %2, %2, %2
  %21 = load ptr, ptr %4, align 8, !tbaa !4
  %22 = getelementptr inbounds nuw %class.colvarvalue, ptr %21, i32 0, i32 2
  %23 = load ptr, ptr %5, align 8, !tbaa !4
  %24 = getelementptr inbounds nuw %class.colvarvalue, ptr %23, i32 0, i32 2
  %25 = call noundef double @_ZmlRKN12colvarmodule7rvectorES2_(ptr noundef nonnull align 8 dereferenceable(24) %22, ptr noundef nonnull align 8 dereferenceable(24) %24)
  store double %25, ptr %3, align 8
  br label %41

26:                                               ; preds = %2, %2
  %27 = load ptr, ptr %4, align 8, !tbaa !4
  %28 = getelementptr inbounds nuw %class.colvarvalue, ptr %27, i32 0, i32 3
  %29 = load ptr, ptr %5, align 8, !tbaa !4
  %30 = getelementptr inbounds nuw %class.colvarvalue, ptr %29, i32 0, i32 3
  %31 = call noundef double @_ZNK12colvarmodule10quaternion5innerERKS0_(ptr noundef nonnull align 8 dereferenceable(32) %28, ptr noundef nonnull align 8 dereferenceable(32) %30)
  store double %31, ptr %3, align 8
  br label %41

32:                                               ; preds = %2
  %33 = load ptr, ptr %4, align 8, !tbaa !4
  %34 = getelementptr inbounds nuw %class.colvarvalue, ptr %33, i32 0, i32 4
  %35 = load ptr, ptr %5, align 8, !tbaa !4
  %36 = getelementptr inbounds nuw %class.colvarvalue, ptr %35, i32 0, i32 4
  %37 = call noundef double @_ZmlRKN12colvarmodule8vector1dIdEES3_(ptr noundef nonnull align 8 dereferenceable(24) %34, ptr noundef nonnull align 8 dereferenceable(24) %36)
  store double %37, ptr %3, align 8
  br label %41

38:                                               ; preds = %2
  br label %39

39:                                               ; preds = %2, %38
  %40 = load ptr, ptr %4, align 8, !tbaa !4
  call void @_ZNK11colvarvalue8undef_opEv(ptr noundef nonnull align 8 dereferenceable(168) %40)
  store double 0.000000e+00, ptr %3, align 8
  br label %41

41:                                               ; preds = %39, %32, %26, %20, %12
  %42 = load double, ptr %3, align 8
  ret double %42
}