; Function Attrs: mustprogress uwtable
define noundef double @_ZmlRK11colvarvalueS1_(ptr noundef nonnull align 8 dereferenceable(168) %0, ptr noundef nonnull align 8 dereferenceable(168) %1) local_unnamed_addr #1 {
  %3 = tail call noundef i32 @_ZN11colvarvalue11check_typesERKS_S1_(ptr noundef nonnull align 8 dereferenceable(168) %0, ptr noundef nonnull align 8 dereferenceable(168) %1)
  %4 = load i32, ptr %0, align 8, !tbaa !4
  switch i32 %4, label %52 [
    i32 1, label %5
    i32 2, label %11
    i32 3, label %11
    i32 4, label %11
    i32 5, label %27
    i32 6, label %27
    i32 7, label %48
  ]

5:                                                ; preds = %2
  %6 = getelementptr inbounds nuw i8, ptr %0, i64 8
  %7 = load double, ptr %6, align 8, !tbaa !39
  %8 = getelementptr inbounds nuw i8, ptr %1, i64 8
  %9 = load double, ptr %8, align 8, !tbaa !39
  %10 = fmul double %7, %9
  br label %53

11:                                               ; preds = %2, %2, %2
  %12 = getelementptr inbounds nuw i8, ptr %0, i64 16
  %13 = getelementptr inbounds nuw i8, ptr %1, i64 16
  %14 = load double, ptr %12, align 8, !tbaa !63
  %15 = load double, ptr %13, align 8, !tbaa !63
  %16 = getelementptr inbounds nuw i8, ptr %0, i64 24
  %17 = load double, ptr %16, align 8, !tbaa !64
  %18 = getelementptr inbounds nuw i8, ptr %1, i64 24
  %19 = load double, ptr %18, align 8, !tbaa !64
  %20 = fmul double %17, %19
  %21 = tail call double @llvm.fmuladd.f64(double %14, double %15, double %20)
  %22 = getelementptr inbounds nuw i8, ptr %0, i64 32
  %23 = load double, ptr %22, align 8, !tbaa !65
  %24 = getelementptr inbounds nuw i8, ptr %1, i64 32
  %25 = load double, ptr %24, align 8, !tbaa !65
  %26 = tail call noundef double @llvm.fmuladd.f64(double %23, double %25, double %21)
  br label %53

27:                                               ; preds = %2, %2
  %28 = getelementptr inbounds nuw i8, ptr %0, i64 40
  %29 = getelementptr inbounds nuw i8, ptr %1, i64 40
  %30 = load double, ptr %28, align 8, !tbaa !66
  %31 = load double, ptr %29, align 8, !tbaa !66
  %32 = getelementptr inbounds nuw i8, ptr %0, i64 48
  %33 = load double, ptr %32, align 8, !tbaa !67
  %34 = getelementptr inbounds nuw i8, ptr %1, i64 48
  %35 = load double, ptr %34, align 8, !tbaa !67
  %36 = fmul double %33, %35
  %37 = tail call double @llvm.fmuladd.f64(double %30, double %31, double %36)
  %38 = getelementptr inbounds nuw i8, ptr %0, i64 56
  %39 = load double, ptr %38, align 8, !tbaa !68
  %40 = getelementptr inbounds nuw i8, ptr %1, i64 56
  %41 = load double, ptr %40, align 8, !tbaa !68
  %42 = tail call double @llvm.fmuladd.f64(double %39, double %41, double %37)
  %43 = getelementptr inbounds nuw i8, ptr %0, i64 64
  %44 = load double, ptr %43, align 8, !tbaa !69
  %45 = getelementptr inbounds nuw i8, ptr %1, i64 64
  %46 = load double, ptr %45, align 8, !tbaa !69
  %47 = tail call noundef double @llvm.fmuladd.f64(double %44, double %46, double %42)
  br label %53

48:                                               ; preds = %2
  %49 = getelementptr inbounds nuw i8, ptr %0, i64 72
  %50 = getelementptr inbounds nuw i8, ptr %1, i64 72
  %51 = tail call noundef double @_ZmlRKN12colvarmodule8vector1dIdEES3_(ptr noundef nonnull align 8 dereferenceable(24) %49, ptr noundef nonnull align 8 dereferenceable(24) %50)
  br label %53

52:                                               ; preds = %2
  tail call void @_ZNK11colvarvalue8undef_opEv(ptr noundef nonnull align 8 dereferenceable(168) %0)
  br label %53

53:                                               ; preds = %52, %48, %27, %11, %5
  %.0 = phi double [ 0.000000e+00, %52 ], [ %51, %48 ], [ %47, %27 ], [ %26, %11 ], [ %10, %5 ]
  ret double %.0
}